target datalayout = "e-m:e-p270:32:32-p271:32:32-p272:64:64-i64:64-i128:128-f80:128-n8:16:32:64-S128"
target triple = "x86_64-pc-linux-gnu"

%"class.pxrInternal_v0_24__pxrReserved__::GfVec2i" = type { [2 x i32] }
%"struct.std::_Vector_base.17" = type { %"struct.std::_Vector_base<pxrInternal_v0_24__pxrReserved__::GfVec2i, std::allocator<pxrInternal_v0_24__pxrReserved__::GfVec2i>>::_Vector_impl" }
%"struct.std::_Vector_base<pxrInternal_v0_24__pxrReserved__::GfVec2i, std::allocator<pxrInternal_v0_24__pxrReserved__::GfVec2i>>::_Vector_impl" = type { %"struct.std::_Vector_base<pxrInternal_v0_24__pxrReserved__::GfVec2i, std::allocator<pxrInternal_v0_24__pxrReserved__::GfVec2i>>::_Vector_impl_data" }
%"struct.std::_Vector_base<pxrInternal_v0_24__pxrReserved__::GfVec2i, std::allocator<pxrInternal_v0_24__pxrReserved__::GfVec2i>>::_Vector_impl_data" = type { ptr, ptr, ptr }
%"class.pxrInternal_v0_24__pxrReserved__::HdMeshEdgeIndexTable" = type { %"class.std::vector.16", %"class.std::vector.21" }
%"class.std::vector.16" = type { %"struct.std::_Vector_base.17" }
%"class.std::vector.21" = type { %"struct.std::_Vector_base.22" }
%"struct.std::_Vector_base.22" = type { %"struct.std::_Vector_base<pxrInternal_v0_24__pxrReserved__::HdMeshEdgeIndexTable::_Edge, std::allocator<pxrInternal_v0_24__pxrReserved__::HdMeshEdgeIndexTable::_Edge>>::_Vector_impl" }
%"struct.std::_Vector_base<pxrInternal_v0_24__pxrReserved__::HdMeshEdgeIndexTable::_Edge, std::allocator<pxrInternal_v0_24__pxrReserved__::HdMeshEdgeIndexTable::_Edge>>::_Vector_impl" = type { %"struct.std::_Vector_base<pxrInternal_v0_24__pxrReserved__::HdMeshEdgeIndexTable::_Edge, std::allocator<pxrInternal_v0_24__pxrReserved__::HdMeshEdgeIndexTable::_Edge>>::_Vector_impl_data" }
%"struct.std::_Vector_base<pxrInternal_v0_24__pxrReserved__::HdMeshEdgeIndexTable::_Edge, std::allocator<pxrInternal_v0_24__pxrReserved__::HdMeshEdgeIndexTable::_Edge>>::_Vector_impl_data" = type { ptr, ptr, ptr }

; Function Attrs: mustprogress nounwind uwtable
define linkonce_odr noundef nonnull align 4 dereferenceable(8) ptr @_ZNKSt6vectorIN32pxrInternal_v0_24__pxrReserved__7GfVec2iESaIS1_EEixEm(ptr noundef nonnull align 8 dereferenceable(24) %0, i64 noundef %1) #1 comdat align 2 {
  %3 = alloca ptr, align 8
  %4 = alloca i64, align 8
  store ptr %0, ptr %3, align 8
  store i64 %1, ptr %4, align 8
  %5 = load ptr, ptr %3, align 8
  %6 = getelementptr inbounds nuw %"struct.std::_Vector_base.17", ptr %5, i32 0, i32 0
  %7 = getelementptr inbounds nuw %"struct.std::_Vector_base<pxrInternal_v0_24__pxrReserved__::GfVec2i, std::allocator<pxrInternal_v0_24__pxrReserved__::GfVec2i>>::_Vector_impl_data", ptr %6, i32 0, i32 0
  %8 = load ptr, ptr %7, align 8
  %9 = load i64, ptr %4, align 8
  %10 = getelementptr inbounds %"class.pxrInternal_v0_24__pxrReserved__::GfVec2i", ptr %8, i64 %9
  ret ptr %10
}

; Function Attrs: mustprogress nounwind uwtable
define linkonce_odr noundef i64 @_ZNKSt6vectorIN32pxrInternal_v0_24__pxrReserved__7GfVec2iESaIS1_EE4sizeEv(ptr noundef nonnull align 8 dereferenceable(24) %0) #1 comdat align 2 {
  %2 = alloca ptr, align 8
  store ptr %0, ptr %2, align 8
  %3 = load ptr, ptr %2, align 8
  %4 = getelementptr inbounds nuw %"struct.std::_Vector_base.17", ptr %3, i32 0, i32 0
  %5 = getelementptr inbounds nuw %"struct.std::_Vector_base<pxrInternal_v0_24__pxrReserved__::GfVec2i, std::allocator<pxrInternal_v0_24__pxrReserved__::GfVec2i>>::_Vector_impl_data", ptr %4, i32 0, i32 1
  %6 = load ptr, ptr %5, align 8
  %7 = getelementptr inbounds nuw %"struct.std::_Vector_base.17", ptr %3, i32 0, i32 0
  %8 = getelementptr inbounds nuw %"struct.std::_Vector_base<pxrInternal_v0_24__pxrReserved__::GfVec2i, std::allocator<pxrInternal_v0_24__pxrReserved__::GfVec2i>>::_Vector_impl_data", ptr %7, i32 0, i32 0
  %9 = load ptr, ptr %8, align 8
  %10 = ptrtoint ptr %6 to i64
  %11 = ptrtoint ptr %9 to i64
  %12 = sub i64 %10, %11
  %13 = sdiv exact i64 %12, 8
  ret i64 %13
}

; Function Attrs: mustprogress nounwind uwtable
define noundef zeroext i1 @_ZNK32pxrInternal_v0_24__pxrReserved__20HdMeshEdgeIndexTable23GetVerticesForEdgeIndexEiPNS_7GfVec2iE(ptr noundef nonnull align 8 dereferenceable(48) %0, i32 noundef %1, ptr noundef %2) #1 align 2 {
  %4 = alloca i1, align 1
  %5 = alloca ptr, align 8
  %6 = alloca i32, align 4
  %7 = alloca ptr, align 8
  store ptr %0, ptr %5, align 8
  store i32 %1, ptr %6, align 4
  store ptr %2, ptr %7, align 8
  %8 = load ptr, ptr %5, align 8
  %9 = load i32, ptr %6, align 4
  %10 = icmp slt i32 %9, 0
  br i1 %10, label %17, label %11

11:                                               ; preds = %3
  %12 = load i32, ptr %6, align 4
  %13 = getelementptr inbounds nuw %"class.pxrInternal_v0_24__pxrReserved__::HdMeshEdgeIndexTable", ptr %8, i32 0, i32 0
  %14 = call noundef i64 @_ZNKSt6vectorIN32pxrInternal_v0_24__pxrReserved__7GfVec2iESaIS1_EE4sizeEv(ptr noundef nonnull align 8 dereferenceable(24) %13) #14
  %15 = trunc i64 %14 to i32
  %16 = icmp sge i32 %12, %15
  br i1 %16, label %17, label %18

17:                                               ; preds = %11, %3
  store i1 false, ptr %4, align 1
  br label %24

18:                                               ; preds = %11
  %19 = getelementptr inbounds nuw %"class.pxrInternal_v0_24__pxrReserved__::HdMeshEdgeIndexTable", ptr %8, i32 0, i32 0
  %20 = load i32, ptr %6, align 4
  %21 = sext i32 %20 to i64
  %22 = call noundef nonnull align 4 dereferenceable(8) ptr @_ZNKSt6vectorIN32pxrInternal_v0_24__pxrReserved__7GfVec2iESaIS1_EEixEm(ptr noundef nonnull align 8 dereferenceable(24) %19, i64 noundef %21) #14
  %23 = load ptr, ptr %7, align 8
  call void @llvm.memcpy.p0.p0.i64(ptr align 4 %23, ptr align 4 %22, i64 8, i1 false)
  store i1 true, ptr %4, align 1
  br label %24

24:                                               ; preds = %18, %17
  %25 = load i1, ptr %4, align 1
  ret i1 %25
}