; Function Attrs: mustprogress nofree norecurse nosync nounwind willreturn memory(read, argmem: readwrite, inaccessiblemem: none) uwtable
define noundef zeroext i1 @_ZNK32pxrInternal_v0_24__pxrReserved__20HdMeshEdgeIndexTable23GetVerticesForEdgeIndexEiPNS_7GfVec2iE(ptr nocapture noundef nonnull readonly align 8 dereferenceable(48) %0, i32 noundef %1, ptr nocapture noundef writeonly %2) local_unnamed_addr #7 align 2 {
  %4 = icmp slt i32 %1, 0
  br i1 %4, label %18, label %5

5:                                                ; preds = %3
  %6 = getelementptr inbounds nuw i8, ptr %0, i64 8
  %7 = load ptr, ptr %6, align 8
  %8 = load ptr, ptr %0, align 8
  %9 = ptrtoint ptr %7 to i64
  %10 = ptrtoint ptr %8 to i64
  %11 = sub i64 %9, %10
  %12 = lshr exact i64 %11, 3
  %13 = trunc i64 %12 to i32
  %.not = icmp slt i32 %1, %13
  br i1 %.not, label %14, label %18

14:                                               ; preds = %5
  %15 = zext nneg i32 %1 to i64
  %16 = getelementptr inbounds %"class.pxrInternal_v0_24__pxrReserved__::GfVec2i", ptr %8, i64 %15
  %17 = load i64, ptr %16, align 4
  store i64 %17, ptr %2, align 4
  br label %18

18:                                               ; preds = %3, %5, %14
  %.0 = phi i1 [ true, %14 ], [ false, %5 ], [ false, %3 ]
  ret i1 %.0
}